; Function Attrs: mustprogress nounwind uwtable
define internal fastcc noundef zeroext i1 @"_ZZNK4llvm19X86RegisterBankInfo16hasFPConstraintsERKNS_12MachineInstrERKNS_19MachineRegisterInfoERKNS_18TargetRegisterInfoEjENK3$_0clERKNS_14MachineOperandE"(ptr noundef nonnull readonly align 8 captures(none) dereferenceable(32) %0, i32 %.0.val, i32 %.4.val) unnamed_addr #0 align 2 {
  %2 = load ptr, ptr %0, align 8
  %3 = and i32 %.0.val, 255
  %4 = icmp eq i32 %3, 0
  br i1 %4, label %5, label %_ZNK4llvm19X86RegisterBankInfo13onlyDefinesFPERKNS_12MachineInstrERKNS_19MachineRegisterInfoERKNS_18TargetRegisterInfoEj.exit

5:                                                ; preds = %1
  %6 = getelementptr inbounds nuw i8, ptr %0, i64 8
  %7 = load ptr, ptr %6, align 8
  %8 = tail call noundef ptr @_ZNK4llvm19MachineRegisterInfo10getVRegDefENS_8RegisterE(ptr noundef nonnull align 8 dereferenceable(512) %7, i32 %.4.val) #12
  %9 = getelementptr inbounds nuw i8, ptr %8, i64 68
  %10 = load i16, ptr %9, align 4
  %11 = add i16 %10, -195
  %switch.i = icmp ult i16 %11, 2
  br i1 %switch.i, label %_ZNK4llvm19X86RegisterBankInfo13onlyDefinesFPERKNS_12MachineInstrERKNS_19MachineRegisterInfoERKNS_18TargetRegisterInfoEj.exit, label %12

12:                                               ; preds = %5
  %13 = getelementptr inbounds nuw i8, ptr %0, i64 24
  %14 = load ptr, ptr %13, align 8
  %15 = load i32, ptr %14, align 4
  %16 = add i32 %15, 1
  %17 = getelementptr inbounds nuw i8, ptr %0, i64 16
  %18 = load ptr, ptr %17, align 8
  %19 = load ptr, ptr %6, align 8
  %20 = tail call noundef zeroext i1 @_ZNK4llvm19X86RegisterBankInfo16hasFPConstraintsERKNS_12MachineInstrERKNS_19MachineRegisterInfoERKNS_18TargetRegisterInfoEj(ptr noundef nonnull align 8 dereferenceable(168) %2, ptr noundef nonnull align 8 dereferenceable(70) %8, ptr noundef nonnull align 8 dereferenceable(512) %19, ptr noundef nonnull align 8 dereferenceable(308) %18, i32 noundef %16)
  br label %_ZNK4llvm19X86RegisterBankInfo13onlyDefinesFPERKNS_12MachineInstrERKNS_19MachineRegisterInfoERKNS_18TargetRegisterInfoEj.exit

_ZNK4llvm19X86RegisterBankInfo13onlyDefinesFPERKNS_12MachineInstrERKNS_19MachineRegisterInfoERKNS_18TargetRegisterInfoEj.exit: ; preds = %12, %5, %1
  %21 = phi i1 [ false, %1 ], [ %20, %12 ], [ true, %5 ]
  ret i1 %21
}